; ModuleID = '45/872.c'
source_filename = "45/872.c"
target datalayout = "e-m:e-p270:32:32-p271:32:32-p272:64:64-i64:64-f80:128-n8:16:32:64-S128"
target triple = "x86_64-pc-linux-gnu"

@.str = private unnamed_addr constant [5 x i8] c"%s%s\00", align 1
@.str.1 = private unnamed_addr constant [3 x i8] c"%d\00", align 1

; Function Attrs: noinline nounwind uwtable
define dso_local i32 @main() #0 {
  %1 = alloca i32, align 4
  %2 = alloca i32, align 4
  %3 = alloca i32, align 4
  %4 = alloca i32, align 4
  %5 = alloca i8**, align 8
  store i32 0, i32* %1, align 4
  %6 = call noalias i8* @malloc(i64 24) #4
  %7 = bitcast i8* %6 to i8**
  store i8** %7, i8*** %5, align 8
  store i32 0, i32* %2, align 4
  br label %8

8:                                                ; preds = %17, %0
  %9 = load i32, i32* %2, align 4
  %10 = icmp slt i32 %9, 3
  br i1 %10, label %11, label %20

11:                                               ; preds = %8
  %12 = call noalias i8* @malloc(i64 51) #4
  %13 = load i8**, i8*** %5, align 8
  %14 = load i32, i32* %2, align 4
  %15 = sext i32 %14 to i64
  %16 = getelementptr inbounds i8*, i8** %13, i64 %15
  store i8* %12, i8** %16, align 8
  br label %17

17:                                               ; preds = %11
  %18 = load i32, i32* %2, align 4
  %19 = add nsw i32 %18, 1
  store i32 %19, i32* %2, align 4
  br label %8

20:                                               ; preds = %8
  %21 = load i8**, i8*** %5, align 8
  %22 = getelementptr inbounds i8*, i8** %21, i64 0
  %23 = load i8*, i8** %22, align 8
  %24 = load i8**, i8*** %5, align 8
  %25 = getelementptr inbounds i8*, i8** %24, i64 1
  %26 = load i8*, i8** %25, align 8
  %27 = call i32 (i8*, ...) @__isoc99_scanf(i8* getelementptr inbounds ([5 x i8], [5 x i8]* @.str, i64 0, i64 0), i8* %23, i8* %26)
  store i32 0, i32* %2, align 4
  br label %28

28:                                               ; preds = %102, %20
  %29 = load i32, i32* %2, align 4
  %30 = sext i32 %29 to i64
  %31 = load i8**, i8*** %5, align 8
  %32 = getelementptr inbounds i8*, i8** %31, i64 1
  %33 = load i8*, i8** %32, align 8
  %34 = call i64 @strlen(i8* %33) #5
  %35 = icmp ult i64 %30, %34
  br i1 %35, label %36, label %105

36:                                               ; preds = %28
  %37 = load i8**, i8*** %5, align 8
  %38 = getelementptr inbounds i8*, i8** %37, i64 1
  %39 = load i8*, i8** %38, align 8
  %40 = load i32, i32* %2, align 4
  %41 = sext i32 %40 to i64
  %42 = getelementptr inbounds i8, i8* %39, i64 %41
  %43 = load i8, i8* %42, align 1
  %44 = sext i8 %43 to i32
  %45 = load i8**, i8*** %5, align 8
  %46 = getelementptr inbounds i8*, i8** %45, i64 0
  %47 = load i8*, i8** %46, align 8
  %48 = getelementptr inbounds i8, i8* %47, i64 0
  %49 = load i8, i8* %48, align 1
  %50 = sext i8 %49 to i32
  %51 = icmp eq i32 %44, %50
  br i1 %51, label %52, label %101

52:                                               ; preds = %36
  store i32 0, i32* %4, align 4
  br label %53

53:                                               ; preds = %85, %52
  %54 = load i32, i32* %4, align 4
  %55 = sext i32 %54 to i64
  %56 = load i8**, i8*** %5, align 8
  %57 = getelementptr inbounds i8*, i8** %56, i64 0
  %58 = load i8*, i8** %57, align 8
  %59 = call i64 @strlen(i8* %58) #5
  %60 = icmp ult i64 %55, %59
  br i1 %60, label %61, label %88

61:                                               ; preds = %53
  %62 = load i8**, i8*** %5, align 8
  %63 = getelementptr inbounds i8*, i8** %62, i64 2
  %64 = load i8*, i8** %63, align 8
  %65 = load i8**, i8*** %5, align 8
  %66 = getelementptr inbounds i8*, i8** %65, i64 0
  %67 = load i8*, i8** %66, align 8
  %68 = call i64 @strlen(i8* %67) #5
  %69 = getelementptr inbounds i8, i8* %64, i64 %68
  store i8 0, i8* %69, align 1
  %70 = load i8**, i8*** %5, align 8
  %71 = getelementptr inbounds i8*, i8** %70, i64 1
  %72 = load i8*, i8** %71, align 8
  %73 = load i32, i32* %4, align 4
  %74 = load i32, i32* %2, align 4
  %75 = add nsw i32 %73, %74
  %76 = sext i32 %75 to i64
  %77 = getelementptr inbounds i8, i8* %72, i64 %76
  %78 = load i8, i8* %77, align 1
  %79 = load i8**, i8*** %5, align 8
  %80 = getelementptr inbounds i8*, i8** %79, i64 2
  %81 = load i8*, i8** %80, align 8
  %82 = load i32, i32* %4, align 4
  %83 = sext i32 %82 to i64
  %84 = getelementptr inbounds i8, i8* %81, i64 %83
  store i8 %78, i8* %84, align 1
  br label %85

85:                                               ; preds = %61
  %86 = load i32, i32* %4, align 4
  %87 = add nsw i32 %86, 1
  store i32 %87, i32* %4, align 4
  br label %53

88:                                               ; preds = %53
  %89 = load i8**, i8*** %5, align 8
  %90 = getelementptr inbounds i8*, i8** %89, i64 0
  %91 = load i8*, i8** %90, align 8
  %92 = load i8**, i8*** %5, align 8
  %93 = getelementptr inbounds i8*, i8** %92, i64 2
  %94 = load i8*, i8** %93, align 8
  %95 = call i32 @strcmp(i8* %91, i8* %94) #5
  %96 = icmp eq i32 %95, 0
  br i1 %96, label %97, label %100

97:                                               ; preds = %88
  %98 = load i32, i32* %2, align 4
  %99 = call i32 (i8*, ...) @printf(i8* getelementptr inbounds ([3 x i8], [3 x i8]* @.str.1, i64 0, i64 0), i32 %98)
  br label %105

100:                                              ; preds = %88
  br label %101

101:                                              ; preds = %100, %36
  br label %102

102:                                              ; preds = %101
  %103 = load i32, i32* %2, align 4
  %104 = add nsw i32 %103, 1
  store i32 %104, i32* %2, align 4
  br label %28

105:                                              ; preds = %97, %28
  ret i32 0
}

; Function Attrs: nounwind
declare dso_local noalias i8* @malloc(i64) #1

declare dso_local i32 @__isoc99_scanf(i8*, ...) #2

; Function Attrs: nounwind readonly
declare dso_local i64 @strlen(i8*) #3

; Function Attrs: nounwind readonly
declare dso_local i32 @strcmp(i8*, i8*) #3

declare dso_local i32 @printf(i8*, ...) #2


!llvm.module.flags = !{!0}
!llvm.ident = !{!1}

!0 = !{i32 1, !"wchar_size", i32 4}
!1 = !{!"clang version 10.0.0-4ubuntu1 "}
